; Function Attrs: mustprogress uwtable
define hidden noundef zeroext i1 @_ZNK4cvc58internal6theory7strings16InferenceManager12hasProcessedEv(ptr noundef nonnull align 8 dereferenceable(432) %0) local_unnamed_addr #3 align 2 {
  %2 = getelementptr inbounds nuw i8, ptr %0, i64 352
  %3 = load ptr, ptr %2, align 8, !tbaa !100
  %4 = load ptr, ptr %3, align 8, !tbaa !3
  %5 = getelementptr inbounds nuw i8, ptr %4, i64 72
  %6 = load ptr, ptr %5, align 8
  %7 = tail call noundef zeroext i1 %6(ptr noundef nonnull align 8 dereferenceable(160) %3)
  br i1 %7, label %11, label %8

8:                                                ; preds = %1
  %9 = getelementptr inbounds nuw i8, ptr %0, i64 8
  %10 = tail call noundef zeroext i1 @_ZNK4cvc58internal6theory24InferenceManagerBuffered10hasPendingEv(ptr noundef nonnull align 8 dereferenceable(337) %9)
  br label %11

11:                                               ; preds = %8, %1
  %12 = phi i1 [ true, %1 ], [ %10, %8 ]
  ret i1 %12
}